(dp0
S'web2'
p1
(dp2
S'original'
p3
S'./original_backup/web2_original.tar.gz'
p4
ssS'web1'
p5
(dp6
S'v1'
p7
S'./backup/web1_v1.tar.gz'
p8
sS'original'
p9
S'./original_backup/web1_original.tar.gz'
p10
ss.